; ModuleID = 'source-C-CXX/30/1528.c'
source_filename = "source-C-CXX/30/1528.c"
target datalayout = "e-m:e-p270:32:32-p271:32:32-p272:64:64-i64:64-f80:128-n8:16:32:64-S128"
target triple = "x86_64-pc-linux-gnu"

%struct.student = type { [100 x i8], [100 x i8], [10 x i8], [10 x i8], [10 x i8], [100 x i8], %struct.student* }

@.str = private unnamed_addr constant [3 x i8] c"%s\00", align 1
@.str.1 = private unnamed_addr constant [4 x i8] c"end\00", align 1
@.str.2 = private unnamed_addr constant [11 x i8] c"%s%s%s%s%s\00", align 1
@.str.3 = private unnamed_addr constant [19 x i8] c"%s %s %s %s %s %s\0A\00", align 1

; Function Attrs: nofree nounwind sspstrong uwtable
define dso_local i32 @main() local_unnamed_addr #0 {
  %1 = tail call noalias align 16 dereferenceable_or_null(344) i8* @malloc(i64 344) #4
  %2 = bitcast i8* %1 to %struct.student*
  %3 = getelementptr inbounds %struct.student, %struct.student* %2, i64 0, i32 0, i64 0
  %4 = tail call i32 (i8*, ...) @__isoc99_scanf(i8* getelementptr inbounds ([3 x i8], [3 x i8]* @.str, i64 0, i64 0), i8* %3)
  %5 = tail call i32 @strcmp(i8* noundef nonnull dereferenceable(1) %3, i8* noundef nonnull dereferenceable(4) getelementptr inbounds ([4 x i8], [4 x i8]* @.str.1, i64 0, i64 0)) #5
  %6 = icmp eq i32 %5, 0
  br i1 %6, label %35, label %7

7:                                                ; preds = %0, %7
  %8 = phi %struct.student* [ %18, %7 ], [ %2, %0 ]
  %9 = phi %struct.student* [ %8, %7 ], [ null, %0 ]
  %10 = getelementptr inbounds %struct.student, %struct.student* %8, i64 0, i32 1, i64 0
  %11 = getelementptr inbounds %struct.student, %struct.student* %8, i64 0, i32 2, i64 0
  %12 = getelementptr inbounds %struct.student, %struct.student* %8, i64 0, i32 3, i64 0
  %13 = getelementptr inbounds %struct.student, %struct.student* %8, i64 0, i32 4, i64 0
  %14 = getelementptr inbounds %struct.student, %struct.student* %8, i64 0, i32 5, i64 0
  %15 = tail call i32 (i8*, ...) @__isoc99_scanf(i8* getelementptr inbounds ([11 x i8], [11 x i8]* @.str.2, i64 0, i64 0), i8* nonnull %10, i8* nonnull %11, i8* nonnull %12, i8* nonnull %13, i8* nonnull %14)
  %16 = getelementptr inbounds %struct.student, %struct.student* %8, i64 0, i32 6
  store %struct.student* %9, %struct.student** %16, align 8, !tbaa !5
  %17 = tail call noalias align 16 dereferenceable_or_null(344) i8* @malloc(i64 344) #4
  %18 = bitcast i8* %17 to %struct.student*
  %19 = getelementptr inbounds %struct.student, %struct.student* %18, i64 0, i32 0, i64 0
  %20 = tail call i32 (i8*, ...) @__isoc99_scanf(i8* getelementptr inbounds ([3 x i8], [3 x i8]* @.str, i64 0, i64 0), i8* %19)
  %21 = tail call i32 @strcmp(i8* noundef nonnull dereferenceable(1) %19, i8* noundef nonnull dereferenceable(4) getelementptr inbounds ([4 x i8], [4 x i8]* @.str.1, i64 0, i64 0)) #5
  %22 = icmp eq i32 %21, 0
  br i1 %22, label %23, label %7, !llvm.loop !10

23:                                               ; preds = %7, %23
  %24 = phi %struct.student* [ %33, %23 ], [ %8, %7 ]
  %25 = getelementptr inbounds %struct.student, %struct.student* %24, i64 0, i32 0, i64 0
  %26 = getelementptr inbounds %struct.student, %struct.student* %24, i64 0, i32 1, i64 0
  %27 = getelementptr inbounds %struct.student, %struct.student* %24, i64 0, i32 2, i64 0
  %28 = getelementptr inbounds %struct.student, %struct.student* %24, i64 0, i32 3, i64 0
  %29 = getelementptr inbounds %struct.student, %struct.student* %24, i64 0, i32 4, i64 0
  %30 = getelementptr inbounds %struct.student, %struct.student* %24, i64 0, i32 5, i64 0
  %31 = tail call i32 (i8*, ...) @printf(i8* nonnull dereferenceable(1) getelementptr inbounds ([19 x i8], [19 x i8]* @.str.3, i64 0, i64 0), i8* nonnull %25, i8* nonnull %26, i8* nonnull %27, i8* nonnull %28, i8* nonnull %29, i8* nonnull %30)
  %32 = getelementptr inbounds %struct.student, %struct.student* %24, i64 0, i32 6
  %33 = load %struct.student*, %struct.student** %32, align 8, !tbaa !5
  %34 = icmp eq %struct.student* %33, null
  br i1 %34, label %35, label %23, !llvm.loop !12

35:                                               ; preds = %23, %0
  ret i32 0
}

; Function Attrs: inaccessiblememonly mustprogress nofree nounwind willreturn
declare noalias noundef align 16 i8* @malloc(i64 noundef) local_unnamed_addr #1

; Function Attrs: nofree nounwind
declare noundef i32 @__isoc99_scanf(i8* nocapture noundef readonly, ...) local_unnamed_addr #2

; Function Attrs: argmemonly mustprogress nofree nounwind readonly willreturn
declare i32 @strcmp(i8* nocapture, i8* nocapture) local_unnamed_addr #3

; Function Attrs: nofree nounwind
declare noundef i32 @printf(i8* nocapture noundef readonly, ...) local_unnamed_addr #2


!llvm.module.flags = !{!0, !1, !2, !3}
!llvm.ident = !{!4}

!0 = !{i32 1, !"wchar_size", i32 4}
!1 = !{i32 7, !"PIC Level", i32 2}
!2 = !{i32 7, !"PIE Level", i32 2}
!3 = !{i32 7, !"uwtable", i32 1}
!4 = !{!"clang version 13.0.0"}
!5 = !{!6, !9, i64 336}
!6 = !{!"student", !7, i64 0, !7, i64 100, !7, i64 200, !7, i64 210, !7, i64 220, !7, i64 230, !9, i64 336}
!7 = !{!"omnipotent char", !8, i64 0}
!8 = !{!"Simple C/C++ TBAA"}
!9 = !{!"any pointer", !7, i64 0}
!10 = distinct !{!10, !11}
!11 = !{!"llvm.loop.mustprogress"}
!12 = distinct !{!12, !11}
